; Function Attrs: mustprogress nounwind uwtable
define dso_local void @_ZN4llvm24reportInvalidSizeRequestEPKc(ptr noundef %0) local_unnamed_addr #0 {
  %2 = load atomic i64, ptr @_ZL22ScalableErrorAsWarning acquire, align 8
  %.not.i = icmp eq i64 %2, 0
  br i1 %.not.i, label %3, label %_ZN4llvm13ManagedStaticINS_2cl3optIbLb0ENS1_6parserIbEEEEN12_GLOBAL__N_128CreateScalableErrorAsWarningENS_14object_deleterIS5_EEEdeEv.exit

3:                                                ; preds = %1
  tail call void @_ZNK4llvm17ManagedStaticBase21RegisterManagedStaticEPFPvvEPFvS1_E(ptr noundef nonnull align 8 dereferenceable(24) @_ZL22ScalableErrorAsWarning, ptr noundef nonnull @_ZN12_GLOBAL__N_128CreateScalableErrorAsWarning4callEv, ptr noundef nonnull @_ZN4llvm14object_deleterINS_2cl3optIbLb0ENS1_6parserIbEEEEE4callEPv) #7
  br label %_ZN4llvm13ManagedStaticINS_2cl3optIbLb0ENS1_6parserIbEEEEN12_GLOBAL__N_128CreateScalableErrorAsWarningENS_14object_deleterIS5_EEEdeEv.exit

_ZN4llvm13ManagedStaticINS_2cl3optIbLb0ENS1_6parserIbEEEEN12_GLOBAL__N_128CreateScalableErrorAsWarningENS_14object_deleterIS5_EEEdeEv.exit: ; preds = %1, %3
  %4 = load atomic i64, ptr @_ZL22ScalableErrorAsWarning monotonic, align 8
  %.0.i2.i = inttoptr i64 %4 to ptr
  %5 = getelementptr inbounds nuw i8, ptr %.0.i2.i, i64 128
  %6 = load i8, ptr %5, align 8
  %7 = trunc i8 %6 to i1
  br i1 %7, label %8, label %48

8:                                                ; preds = %_ZN4llvm13ManagedStaticINS_2cl3optIbLb0ENS1_6parserIbEEEEN12_GLOBAL__N_128CreateScalableErrorAsWarningENS_14object_deleterIS5_EEEdeEv.exit
  %9 = tail call noundef nonnull align 8 dereferenceable(48) ptr @_ZN4llvm9WithColor7warningEv() #7
  %10 = getelementptr inbounds nuw i8, ptr %9, i64 24
  %11 = load ptr, ptr %10, align 8
  %12 = getelementptr inbounds nuw i8, ptr %9, i64 32
  %13 = load ptr, ptr %12, align 8
  %14 = ptrtoint ptr %11 to i64
  %15 = ptrtoint ptr %13 to i64
  %16 = sub i64 %14, %15
  %17 = icmp ult i64 %16, 43
  br i1 %17, label %18, label %20

18:                                               ; preds = %8
  %19 = tail call noundef nonnull align 8 dereferenceable(48) ptr @_ZN4llvm11raw_ostream5writeEPKcm(ptr noundef nonnull align 8 dereferenceable(48) %9, ptr noundef nonnull @.str, i64 noundef 43) #7
  br label %_ZN4llvm11raw_ostreamlsEPKc.exit

20:                                               ; preds = %8
  tail call void @llvm.memcpy.p0.p0.i64(ptr noundef nonnull align 1 dereferenceable(43) %13, ptr noundef nonnull align 1 dereferenceable(43) @.str, i64 43, i1 false)
  %21 = load ptr, ptr %12, align 8
  %22 = getelementptr inbounds nuw i8, ptr %21, i64 43
  store ptr %22, ptr %12, align 8
  br label %_ZN4llvm11raw_ostreamlsEPKc.exit

_ZN4llvm11raw_ostreamlsEPKc.exit:                 ; preds = %18, %20
  %.0.i.i = phi ptr [ %19, %18 ], [ %9, %20 ]
  %.not.i.i = icmp eq ptr %0, null
  br i1 %.not.i.i, label %_ZN4llvm11raw_ostreamlsEPKc.exit3, label %_ZN4llvm9StringRefC2EPKc.exit.i

_ZN4llvm9StringRefC2EPKc.exit.i:                  ; preds = %_ZN4llvm11raw_ostreamlsEPKc.exit
  %23 = tail call noundef i64 @strlen(ptr noundef nonnull dereferenceable(1) %0) #7
  %24 = getelementptr inbounds nuw i8, ptr %.0.i.i, i64 24
  %25 = load ptr, ptr %24, align 8
  %26 = getelementptr inbounds nuw i8, ptr %.0.i.i, i64 32
  %27 = load ptr, ptr %26, align 8
  %28 = ptrtoint ptr %25 to i64
  %29 = ptrtoint ptr %27 to i64
  %30 = sub i64 %28, %29
  %31 = icmp ugt i64 %23, %30
  br i1 %31, label %32, label %34

32:                                               ; preds = %_ZN4llvm9StringRefC2EPKc.exit.i
  %33 = tail call noundef nonnull align 8 dereferenceable(48) ptr @_ZN4llvm11raw_ostream5writeEPKcm(ptr noundef nonnull align 8 dereferenceable(48) %.0.i.i, ptr noundef nonnull %0, i64 noundef %23) #7
  br label %_ZN4llvm11raw_ostreamlsEPKc.exit3

34:                                               ; preds = %_ZN4llvm9StringRefC2EPKc.exit.i
  %.not.i2.i1 = icmp eq i64 %23, 0
  br i1 %.not.i2.i1, label %_ZN4llvm11raw_ostreamlsEPKc.exit3, label %35

35:                                               ; preds = %34
  tail call void @llvm.memcpy.p0.p0.i64(ptr align 1 %27, ptr nonnull align 1 %0, i64 %23, i1 false)
  %36 = load ptr, ptr %26, align 8
  %37 = getelementptr inbounds i8, ptr %36, i64 %23
  store ptr %37, ptr %26, align 8
  br label %_ZN4llvm11raw_ostreamlsEPKc.exit3

_ZN4llvm11raw_ostreamlsEPKc.exit3:                ; preds = %_ZN4llvm11raw_ostreamlsEPKc.exit, %32, %34, %35
  %.0.i.i2 = phi ptr [ %33, %32 ], [ %.0.i.i, %35 ], [ %.0.i.i, %34 ], [ %.0.i.i, %_ZN4llvm11raw_ostreamlsEPKc.exit ]
  %38 = getelementptr inbounds nuw i8, ptr %.0.i.i2, i64 24
  %39 = load ptr, ptr %38, align 8
  %40 = getelementptr inbounds nuw i8, ptr %.0.i.i2, i64 32
  %41 = load ptr, ptr %40, align 8
  %42 = icmp eq ptr %39, %41
  br i1 %42, label %43, label %45

43:                                               ; preds = %_ZN4llvm11raw_ostreamlsEPKc.exit3
  %44 = tail call noundef nonnull align 8 dereferenceable(48) ptr @_ZN4llvm11raw_ostream5writeEPKcm(ptr noundef nonnull align 8 dereferenceable(48) %.0.i.i2, ptr noundef nonnull @.str.1, i64 noundef 1) #7
  br label %_ZN4llvm11raw_ostreamlsEPKc.exit7

45:                                               ; preds = %_ZN4llvm11raw_ostreamlsEPKc.exit3
  store i8 10, ptr %41, align 1
  %46 = load ptr, ptr %40, align 8
  %47 = getelementptr inbounds nuw i8, ptr %46, i64 1
  store ptr %47, ptr %40, align 8
  br label %_ZN4llvm11raw_ostreamlsEPKc.exit7

_ZN4llvm11raw_ostreamlsEPKc.exit7:                ; preds = %43, %45
  ret void

48:                                               ; preds = %_ZN4llvm13ManagedStaticINS_2cl3optIbLb0ENS1_6parserIbEEEEN12_GLOBAL__N_128CreateScalableErrorAsWarningENS_14object_deleterIS5_EEEdeEv.exit
  tail call void @_ZN4llvm18report_fatal_errorEPKcb(ptr noundef nonnull @.str.2, i1 noundef zeroext true) #8
  unreachable
}